; Function Attrs: nounwind uwtable
define ptr @l_Lean_PrettyPrinter_Delaborator_SubExpr_withAppArg___rarg___lambda__1(ptr noundef %0, ptr noundef %1, ptr noundef %2) local_unnamed_addr #0 {
  %4 = tail call ptr @l_Lean_Expr_appArg_x21(ptr noundef %2) #5
  tail call void @lean_inc_heartbeat() #5
  %5 = tail call noalias ptr @mi_malloc_small(i64 noundef 40) #5
  %6 = icmp eq ptr %5, null
  br i1 %6, label %7, label %l_Lean_PrettyPrinter_Delaborator_SubExpr_descend___rarg.exit

7:                                                ; preds = %3
  tail call void @lean_internal_panic_out_of_memory() #6
  unreachable

l_Lean_PrettyPrinter_Delaborator_SubExpr_descend___rarg.exit: ; preds = %3
  %8 = getelementptr inbounds nuw i8, ptr %5, i64 4
  store i32 1, ptr %5, align 4, !tbaa !9
  store i32 -184549336, ptr %8, align 4
  %9 = getelementptr inbounds nuw i8, ptr %5, i64 8
  store ptr @l_Lean_PrettyPrinter_Delaborator_SubExpr_descend___rarg___lambda__1___boxed, ptr %9, align 8, !tbaa !5
  %10 = getelementptr inbounds nuw i8, ptr %5, i64 16
  store i16 3, ptr %10, align 8, !tbaa !17
  %11 = getelementptr inbounds nuw i8, ptr %5, i64 18
  store i16 2, ptr %11, align 2, !tbaa !17
  %12 = getelementptr inbounds nuw i8, ptr %5, i64 24
  store ptr inttoptr (i64 3 to ptr), ptr %12, align 8, !tbaa !5
  %13 = getelementptr inbounds nuw i8, ptr %5, i64 32
  store ptr %4, ptr %13, align 8, !tbaa !5
  %14 = tail call ptr @lean_apply_3(ptr noundef %0, ptr noundef nonnull inttoptr (i64 1 to ptr), ptr noundef nonnull %5, ptr noundef %1) #5
  ret ptr %14
}